target datalayout = "e-m:e-p270:32:32-p271:32:32-p272:64:64-i64:64-i128:128-f80:128-n8:16:32:64-S128"
target triple = "x86_64-pc-linux-gnu"

@command_pid = dso_local global i32 -1, align 4
@exit_flag = internal global i8 0, align 1

; Function Attrs: nounwind uwtable
define internal void @_forward_signal(i32 noundef %0) #0 {
  %2 = alloca i32, align 4
  store i32 %0, ptr %2, align 4
  %3 = load i32, ptr @command_pid, align 4
  %4 = icmp sgt i32 %3, 0
  br i1 %4, label %5, label %9

5:                                                ; preds = %1
  %6 = load i32, ptr @command_pid, align 4
  %7 = load i32, ptr %2, align 4
  %8 = call i32 @killpg(i32 noundef %6, i32 noundef %7) #9
  br label %9

9:                                                ; preds = %5, %1
  ret void
}

; Function Attrs: nounwind uwtable
define internal void @_exit_on_signal(i32 noundef %0) #0 {
  %2 = alloca i32, align 4
  store i32 %0, ptr %2, align 4
  %3 = load i32, ptr %2, align 4
  call void @_forward_signal(i32 noundef %3)
  store i8 1, ptr @exit_flag, align 1
  ret void
}