; Function Attrs: nounwind uwtable
define internal void @_exit_on_signal(i32 noundef %0) #0 {
  %2 = load i32, ptr @command_pid, align 4
  %3 = icmp sgt i32 %2, 0
  br i1 %3, label %4, label %_forward_signal.exit

4:                                                ; preds = %1
  %5 = tail call i32 @killpg(i32 noundef %2, i32 noundef %0) #13
  br label %_forward_signal.exit

_forward_signal.exit:                             ; preds = %1, %4
  store i1 true, ptr @exit_flag, align 1
  ret void
}